; Function Attrs: mustprogress uwtable
define internal fastcc void @_ZN12_GLOBAL__N_16Target19DumpCommandFragmentERKNS_3JBTINSt7__cxx1112basic_stringIcSt11char_traitsIcESaIcEEEEERKS7_(ptr dead_on_unwind noalias nonnull writable align 8 %0, ptr noundef nonnull align 8 dereferenceable(36) %1, ptr noundef nonnull align 8 dereferenceable(32) %2) unnamed_addr #5 align 2 personality ptr @__gxx_personality_v0 {
  %4 = alloca %"class.Json::Value", align 8
  %5 = alloca %"class.Json::Value", align 8
  %6 = alloca %"class.Json::Value", align 8
  tail call void @_ZN4Json5ValueC1ENS_9ValueTypeE(ptr noundef nonnull align 8 dereferenceable(40) %0, i32 noundef 7)
  call void @llvm.lifetime.start.p0(i64 40, ptr nonnull %5) #28
  invoke void @_ZN4Json5ValueC1ERKNSt7__cxx1112basic_stringIcSt11char_traitsIcESaIcEEE(ptr noundef nonnull align 8 dereferenceable(40) %5, ptr noundef nonnull align 8 dereferenceable(32) %1)
          to label %7 unwind label %19

7:                                                ; preds = %3
  %8 = invoke noundef nonnull align 8 dereferenceable(40) ptr @_ZN4Json5ValueixEPKc(ptr noundef nonnull align 8 dereferenceable(40) %0, ptr noundef nonnull @.str.59)
          to label %9 unwind label %21

9:                                                ; preds = %7
  %10 = call noundef nonnull align 8 dereferenceable(40) ptr @_ZN4Json5ValueaSEOS0_(ptr noundef nonnull align 8 dereferenceable(40) %8, ptr noundef nonnull align 8 dereferenceable(40) %5) #28
  call void @_ZN4Json5ValueD1Ev(ptr noundef nonnull align 8 dereferenceable(40) %5) #28
  call void @llvm.lifetime.end.p0(i64 40, ptr nonnull %5) #28
  %11 = getelementptr inbounds nuw i8, ptr %2, i64 8
  %12 = load i64, ptr %11, align 8, !tbaa !80
  %13 = icmp eq i64 %12, 0
  br i1 %13, label %29, label %14

14:                                               ; preds = %9
  call void @llvm.lifetime.start.p0(i64 40, ptr nonnull %6) #28
  invoke void @_ZN4Json5ValueC1ERKNSt7__cxx1112basic_stringIcSt11char_traitsIcESaIcEEE(ptr noundef nonnull align 8 dereferenceable(40) %6, ptr noundef nonnull align 8 dereferenceable(32) %2)
          to label %15 unwind label %24

15:                                               ; preds = %14
  %16 = invoke noundef nonnull align 8 dereferenceable(40) ptr @_ZN4Json5ValueixEPKc(ptr noundef nonnull align 8 dereferenceable(40) %0, ptr noundef nonnull @.str.60)
          to label %17 unwind label %26

17:                                               ; preds = %15
  %18 = call noundef nonnull align 8 dereferenceable(40) ptr @_ZN4Json5ValueaSEOS0_(ptr noundef nonnull align 8 dereferenceable(40) %16, ptr noundef nonnull align 8 dereferenceable(40) %6) #28
  call void @_ZN4Json5ValueD1Ev(ptr noundef nonnull align 8 dereferenceable(40) %6) #28
  call void @llvm.lifetime.end.p0(i64 40, ptr nonnull %6) #28
  br label %29

19:                                               ; preds = %3
  %20 = landingpad { ptr, i32 }
          cleanup
  br label %23

21:                                               ; preds = %7
  %22 = landingpad { ptr, i32 }
          cleanup
  call void @_ZN4Json5ValueD1Ev(ptr noundef nonnull align 8 dereferenceable(40) %5) #28
  br label %23

23:                                               ; preds = %21, %19
  %.pn = phi { ptr, i32 } [ %22, %21 ], [ %20, %19 ]
  call void @llvm.lifetime.end.p0(i64 40, ptr nonnull %5) #28
  br label %.body

24:                                               ; preds = %14
  %25 = landingpad { ptr, i32 }
          cleanup
  br label %28

26:                                               ; preds = %15
  %27 = landingpad { ptr, i32 }
          cleanup
  call void @_ZN4Json5ValueD1Ev(ptr noundef nonnull align 8 dereferenceable(40) %6) #28
  br label %28

28:                                               ; preds = %26, %24
  %.pn11 = phi { ptr, i32 } [ %27, %26 ], [ %25, %24 ]
  call void @llvm.lifetime.end.p0(i64 40, ptr nonnull %6) #28
  br label %.body

29:                                               ; preds = %17, %9
  %30 = getelementptr inbounds nuw i8, ptr %1, i64 32
  %.sroa.0.0.copyload = load i32, ptr %30, align 8, !tbaa !167
  %.not.i = icmp eq i32 %.sroa.0.0.copyload, -1
  br i1 %.not.i, label %_ZN12_GLOBAL__N_16Target12AddBacktraceERN4Json5ValueENS_8JBTIndexE.exit, label %31

31:                                               ; preds = %29
  call void @llvm.lifetime.start.p0(i64 40, ptr nonnull %4) #28
  invoke void @_ZN4Json5ValueC1Ej(ptr noundef nonnull align 8 dereferenceable(40) %4, i32 noundef %.sroa.0.0.copyload)
          to label %.noexc unwind label %37

.noexc:                                           ; preds = %31
  %32 = invoke noundef nonnull align 8 dereferenceable(40) ptr @_ZN4Json5ValueixEPKc(ptr noundef nonnull align 8 dereferenceable(40) %0, ptr noundef nonnull @.str.37)
          to label %33 unwind label %35

33:                                               ; preds = %.noexc
  %34 = call noundef nonnull align 8 dereferenceable(40) ptr @_ZN4Json5ValueaSEOS0_(ptr noundef nonnull align 8 dereferenceable(40) %32, ptr noundef nonnull align 8 dereferenceable(40) %4) #28
  call void @_ZN4Json5ValueD1Ev(ptr noundef nonnull align 8 dereferenceable(40) %4) #28
  call void @llvm.lifetime.end.p0(i64 40, ptr nonnull %4) #28
  br label %_ZN12_GLOBAL__N_16Target12AddBacktraceERN4Json5ValueENS_8JBTIndexE.exit

35:                                               ; preds = %.noexc
  %36 = landingpad { ptr, i32 }
          cleanup
  call void @_ZN4Json5ValueD1Ev(ptr noundef nonnull align 8 dereferenceable(40) %4) #28
  call void @llvm.lifetime.end.p0(i64 40, ptr nonnull %4) #28
  br label %.body

37:                                               ; preds = %31
  %38 = landingpad { ptr, i32 }
          cleanup
  br label %.body

_ZN12_GLOBAL__N_16Target12AddBacktraceERN4Json5ValueENS_8JBTIndexE.exit: ; preds = %33, %29
  ret void

.body:                                            ; preds = %37, %35, %28, %23
  %.pn13 = phi { ptr, i32 } [ %.pn11, %28 ], [ %.pn, %23 ], [ %38, %37 ], [ %36, %35 ]
  call void @_ZN4Json5ValueD1Ev(ptr noundef nonnull align 8 dereferenceable(40) %0) #28
  resume { ptr, i32 } %.pn13
}